target datalayout = "e-m:e-p270:32:32-p271:32:32-p272:64:64-i64:64-i128:128-f80:128-n8:16:32:64-S128"
target triple = "x86_64-pc-linux-gnu"

%struct.hsts = type { %struct.Curl_llist, ptr, i32 }
%struct.Curl_llist = type { ptr, ptr, ptr, i64 }
%struct.stsentry = type { %struct.Curl_llist_node, ptr, i8, i64 }
%struct.Curl_llist_node = type { ptr, ptr, ptr, ptr }
%struct.Curl_easy = type { i32, i64, i64, ptr, %struct.Curl_llist_node, %struct.Curl_llist_node, i32, i32, %struct.Curl_message, %struct.easy_pollset, %struct.Names, ptr, ptr, ptr, %struct.SingleRequest, %struct.UserDefined, ptr, ptr, %struct.Progress, %struct.UrlState, ptr, %struct.PureInfo, %struct.curl_tlssessioninfo }
%struct.Curl_message = type { %struct.Curl_llist_node, %struct.CURLMsg }
%struct.CURLMsg = type { i32, ptr, %union.anon }
%union.anon = type { ptr }
%struct.easy_pollset = type { [5 x i32], i32, [5 x i8] }
%struct.Names = type { ptr, i32 }
%struct.SingleRequest = type <{ i64, i64, i64, i64, %struct.curltime, i32, i32, i32, i32, i64, i32, i32, i32, i32, ptr, ptr, %struct.bufq, i64, i64, ptr, ptr, %union.anon.0, ptr, i8, i32, [3 x i8] }>
%struct.curltime = type { i64, i32 }
%struct.bufq = type { ptr, ptr, ptr, ptr, i64, i64, i64, i32 }
%union.anon.0 = type { ptr }
%struct.UserDefined = type <{ ptr, ptr, ptr, ptr, ptr, ptr, i16, [6 x i8], i64, i64, i64, ptr, ptr, i64, i16, i16, [4 x i8], ptr, ptr, ptr, ptr, ptr, ptr, ptr, ptr, ptr, ptr, ptr, ptr, ptr, ptr, ptr, ptr, ptr, ptr, ptr, ptr, ptr, ptr, ptr, i32, i32, i32, i32, i32, [4 x i8], i64, i64, i64, i64, i64, i64, i64, i64, ptr, ptr, %struct.curl_mimepart, ptr, ptr, i64, i8, i8, i8, [5 x i8], %struct.ssl_config_data, %struct.ssl_config_data, ptr, i16, i8, i8, [4 x i8], %struct.ssl_general_config, i32, i32, i32, [4 x i8], ptr, ptr, i8, [7 x i8], i64, i8, i8, i8, i8, i32, ptr, ptr, ptr, i8, i8, [2 x i8], i32, [63 x ptr], [8 x ptr], i32, i32, i32, [4 x i8], ptr, ptr, ptr, ptr, ptr, i8, [3 x i8], i32, i32, i32, i64, %struct.Curl_data_priority, ptr, ptr, i64, ptr, i64, ptr, ptr, ptr, i8, [3 x i8], i32, i8, i8, i64, [6 x i8] }>
%struct.curl_mimepart = type { ptr, ptr, i32, i32, ptr, ptr, ptr, ptr, ptr, ptr, ptr, ptr, ptr, ptr, ptr, i64, %struct.mime_state, ptr, %struct.mime_encoder_state, i64 }
%struct.mime_state = type { i32, ptr, i64 }
%struct.mime_encoder_state = type { i64, i64, i64, [256 x i8] }
%struct.ssl_config_data = type { %struct.ssl_primary_config, i64, ptr, ptr, ptr, ptr, ptr, ptr, ptr, i16 }
%struct.ssl_primary_config = type { ptr, ptr, ptr, ptr, ptr, ptr, ptr, ptr, ptr, ptr, ptr, ptr, i8, i32, i8, i8 }
%struct.ssl_general_config = type { i64, i32 }
%struct.Curl_data_priority = type { ptr, ptr, i32, i8 }
%struct.Progress = type { i64, %struct.pgrs_dir, %struct.pgrs_dir, i64, i64, i32, i32, i64, i64, i64, i64, i64, i64, i64, i64, i64, %struct.curltime, %struct.curltime, %struct.curltime, %struct.curltime, [6 x i64], [6 x %struct.curltime], i32, i8 }
%struct.pgrs_dir = type { i64, i64, i64, %struct.pgrs_measure }
%struct.pgrs_measure = type { %struct.curltime, i64 }
%struct.UrlState = type { %struct.curltime, i64, i64, %struct.dynbuf, ptr, i64, ptr, i32, i32, i32, ptr, i64, i32, i64, i32, ptr, %struct.digestdata, %struct.digestdata, %struct.auth, %struct.auth, %struct.Curl_async, ptr, %struct.curltime, %struct.Curl_tree, %struct.Curl_llist, [15 x %struct.time_node], ptr, ptr, i64, i64, %struct.Curl_data_priority, ptr, ptr, ptr, %struct.urlpieces, ptr, ptr, ptr, ptr, ptr, i64, %struct.dynbuf, %struct.Curl_llist, [2 x %struct.curl_header], ptr, i32, ptr, ptr, %struct.store_netrc, %struct.dynamically_allocated_data, i8, i8, i8, i8, i32 }
%struct.digestdata = type { ptr, ptr, ptr, ptr, ptr, ptr, i32, i8, i8 }
%struct.auth = type { i64, i64, i64, i8 }
%struct.Curl_async = type { ptr, ptr, ptr, ptr, i32, i32, i8 }
%struct.Curl_tree = type { ptr, ptr, ptr, ptr, %struct.curltime, ptr }
%struct.time_node = type { %struct.Curl_llist_node, %struct.curltime, i32 }
%struct.urlpieces = type { ptr, ptr, ptr, ptr, ptr, ptr, ptr, ptr }
%struct.dynbuf = type { ptr, i64, i64, i64 }
%struct.curl_header = type { ptr, ptr, i64, i64, i32, ptr }
%struct.store_netrc = type { %struct.dynbuf, ptr, i8 }
%struct.dynamically_allocated_data = type { ptr, ptr, ptr, ptr, ptr, ptr, ptr, ptr, ptr, ptr, ptr, ptr, ptr }
%struct.PureInfo = type { i32, i32, i32, i64, i64, i64, i64, i64, ptr, ptr, i64, i32, %struct.ip_quadruple, i32, ptr, i32, %struct.curl_certinfo, i32, i8 }
%struct.ip_quadruple = type { [46 x i8], [46 x i8], i32, i32 }
%struct.curl_certinfo = type { i32, ptr }
%struct.curl_tlssessioninfo = type { i32, ptr }
%struct.curl_hstsentry = type { ptr, i64, i8, [18 x i8] }

@Curl_ccalloc = external global ptr, align 8
@Curl_cfree = external global ptr, align 8

; Function Attrs: nounwind uwtable
define internal i32 @hsts_create(ptr noundef %0, ptr noundef %1, i1 noundef zeroext %2, i64 noundef %3) #0 {
  %5 = alloca i32, align 4
  %6 = alloca ptr, align 8
  %7 = alloca ptr, align 8
  %8 = alloca i8, align 1
  %9 = alloca i64, align 8
  %10 = alloca i64, align 8
  %11 = alloca ptr, align 8
  %12 = alloca ptr, align 8
  %13 = alloca i32, align 4
  store ptr %0, ptr %6, align 8, !tbaa !8
  store ptr %1, ptr %7, align 8, !tbaa !29
  %14 = zext i1 %2 to i8
  store i8 %14, ptr %8, align 1, !tbaa !31
  store i64 %3, ptr %9, align 8, !tbaa !30
  call void @llvm.lifetime.start.p0(i64 8, ptr %10) #5
  br label %15

15:                                               ; preds = %4
  br label %16

16:                                               ; preds = %15
  br label %17

17:                                               ; preds = %16
  br label %18

18:                                               ; preds = %17
  br label %19

19:                                               ; preds = %18
  br label %20

20:                                               ; preds = %19
  %21 = load ptr, ptr %7, align 8, !tbaa !29
  %22 = call i64 @strlen(ptr noundef %21) #6
  store i64 %22, ptr %10, align 8, !tbaa !30
  %23 = load i64, ptr %10, align 8, !tbaa !30
  %24 = icmp ne i64 %23, 0
  br i1 %24, label %25, label %36

25:                                               ; preds = %20
  %26 = load ptr, ptr %7, align 8, !tbaa !29
  %27 = load i64, ptr %10, align 8, !tbaa !30
  %28 = sub i64 %27, 1
  %29 = getelementptr inbounds nuw i8, ptr %26, i64 %28
  %30 = load i8, ptr %29, align 1, !tbaa !32
  %31 = sext i8 %30 to i32
  %32 = icmp eq i32 %31, 46
  br i1 %32, label %33, label %36

33:                                               ; preds = %25
  %34 = load i64, ptr %10, align 8, !tbaa !30
  %35 = add i64 %34, -1
  store i64 %35, ptr %10, align 8, !tbaa !30
  br label %36

36:                                               ; preds = %33, %25, %20
  %37 = load i64, ptr %10, align 8, !tbaa !30
  %38 = icmp ne i64 %37, 0
  br i1 %38, label %39, label %74

39:                                               ; preds = %36
  call void @llvm.lifetime.start.p0(i64 8, ptr %11) #5
  call void @llvm.lifetime.start.p0(i64 8, ptr %12) #5
  %40 = load ptr, ptr @Curl_ccalloc, align 8, !tbaa !4
  %41 = call ptr %40(i64 noundef 1, i64 noundef 56)
  store ptr %41, ptr %12, align 8, !tbaa !14
  %42 = load ptr, ptr %12, align 8, !tbaa !14
  %43 = icmp ne ptr %42, null
  br i1 %43, label %45, label %44

44:                                               ; preds = %39
  store i32 27, ptr %5, align 4
  store i32 1, ptr %13, align 4
  br label %71

45:                                               ; preds = %39
  %46 = load ptr, ptr %7, align 8, !tbaa !29
  %47 = load i64, ptr %10, align 8, !tbaa !30
  %48 = call ptr @Curl_memdup0(ptr noundef %46, i64 noundef %47)
  store ptr %48, ptr %11, align 8, !tbaa !29
  %49 = load ptr, ptr %11, align 8, !tbaa !29
  %50 = icmp ne ptr %49, null
  br i1 %50, label %54, label %51

51:                                               ; preds = %45
  %52 = load ptr, ptr @Curl_cfree, align 8, !tbaa !4
  %53 = load ptr, ptr %12, align 8, !tbaa !14
  call void %52(ptr noundef %53)
  store i32 27, ptr %5, align 4
  store i32 1, ptr %13, align 4
  br label %71

54:                                               ; preds = %45
  %55 = load ptr, ptr %11, align 8, !tbaa !29
  %56 = load ptr, ptr %12, align 8, !tbaa !14
  %57 = getelementptr inbounds nuw %struct.stsentry, ptr %56, i32 0, i32 1
  store ptr %55, ptr %57, align 8, !tbaa !24
  %58 = load i64, ptr %9, align 8, !tbaa !30
  %59 = load ptr, ptr %12, align 8, !tbaa !14
  %60 = getelementptr inbounds nuw %struct.stsentry, ptr %59, i32 0, i32 3
  store i64 %58, ptr %60, align 8, !tbaa !42
  %61 = load i8, ptr %8, align 1, !tbaa !31, !range !34, !noundef !35
  %62 = trunc i8 %61 to i1
  %63 = load ptr, ptr %12, align 8, !tbaa !14
  %64 = getelementptr inbounds nuw %struct.stsentry, ptr %63, i32 0, i32 2
  %65 = zext i1 %62 to i8
  store i8 %65, ptr %64, align 8, !tbaa !43
  %66 = load ptr, ptr %6, align 8, !tbaa !8
  %67 = getelementptr inbounds nuw %struct.hsts, ptr %66, i32 0, i32 0
  %68 = load ptr, ptr %12, align 8, !tbaa !14
  %69 = load ptr, ptr %12, align 8, !tbaa !14
  %70 = getelementptr inbounds nuw %struct.stsentry, ptr %69, i32 0, i32 0
  call void @Curl_llist_append(ptr noundef %67, ptr noundef %68, ptr noundef %70)
  store i32 0, ptr %13, align 4
  br label %71

71:                                               ; preds = %54, %51, %44
  call void @llvm.lifetime.end.p0(i64 8, ptr %12) #5
  call void @llvm.lifetime.end.p0(i64 8, ptr %11) #5
  %72 = load i32, ptr %13, align 4
  switch i32 %72, label %75 [
    i32 0, label %73
  ]

73:                                               ; preds = %71
  br label %74

74:                                               ; preds = %73, %36
  store i32 0, ptr %5, align 4
  store i32 1, ptr %13, align 4
  br label %75

75:                                               ; preds = %74, %71
  call void @llvm.lifetime.end.p0(i64 8, ptr %10) #5
  %76 = load i32, ptr %5, align 4
  ret i32 %76
}

; Function Attrs: nounwind uwtable
define internal i32 @hsts_pull(ptr noundef %0, ptr noundef %1) #0 {
  %3 = alloca i32, align 4
  %4 = alloca ptr, align 8
  %5 = alloca ptr, align 8
  %6 = alloca i32, align 4
  %7 = alloca [257 x i8], align 16
  %8 = alloca %struct.curl_hstsentry, align 8
  %9 = alloca i64, align 8
  %10 = alloca i32, align 4
  %11 = alloca i32, align 4
  store ptr %0, ptr %4, align 8, !tbaa !45
  store ptr %1, ptr %5, align 8, !tbaa !8
  %12 = load ptr, ptr %4, align 8, !tbaa !45
  %13 = getelementptr inbounds nuw %struct.Curl_easy, ptr %12, i32 0, i32 15
  %14 = getelementptr inbounds nuw %struct.UserDefined, ptr %13, i32 0, i32 34
  %15 = load ptr, ptr %14, align 8, !tbaa !132
  %16 = icmp ne ptr %15, null
  br i1 %16, label %17, label %103

17:                                               ; preds = %2
  call void @llvm.lifetime.start.p0(i64 4, ptr %6) #5
  br label %18

18:                                               ; preds = %17
  br label %19

19:                                               ; preds = %18
  br label %20

20:                                               ; preds = %19
  br label %21

21:                                               ; preds = %96, %20
  call void @llvm.lifetime.start.p0(i64 257, ptr %7) #5
  call void @llvm.lifetime.start.p0(i64 40, ptr %8) #5
  %22 = getelementptr inbounds [257 x i8], ptr %7, i64 0, i64 0
  %23 = getelementptr inbounds nuw %struct.curl_hstsentry, ptr %8, i32 0, i32 0
  store ptr %22, ptr %23, align 8, !tbaa !126
  %24 = getelementptr inbounds nuw %struct.curl_hstsentry, ptr %8, i32 0, i32 1
  store i64 256, ptr %24, align 8, !tbaa !128
  %25 = getelementptr inbounds nuw %struct.curl_hstsentry, ptr %8, i32 0, i32 2
  %26 = load i8, ptr %25, align 8
  %27 = and i8 %26, -2
  %28 = or i8 %27, 0
  store i8 %28, ptr %25, align 8
  %29 = getelementptr inbounds nuw %struct.curl_hstsentry, ptr %8, i32 0, i32 3
  %30 = getelementptr inbounds [18 x i8], ptr %29, i64 0, i64 0
  store i8 0, ptr %30, align 1, !tbaa !32
  %31 = getelementptr inbounds nuw %struct.curl_hstsentry, ptr %8, i32 0, i32 0
  %32 = load ptr, ptr %31, align 8, !tbaa !126
  %33 = getelementptr inbounds i8, ptr %32, i64 0
  store i8 0, ptr %33, align 1, !tbaa !32
  %34 = load ptr, ptr %4, align 8, !tbaa !45
  %35 = getelementptr inbounds nuw %struct.Curl_easy, ptr %34, i32 0, i32 15
  %36 = getelementptr inbounds nuw %struct.UserDefined, ptr %35, i32 0, i32 34
  %37 = load ptr, ptr %36, align 8, !tbaa !132
  %38 = load ptr, ptr %4, align 8, !tbaa !45
  %39 = load ptr, ptr %4, align 8, !tbaa !45
  %40 = getelementptr inbounds nuw %struct.Curl_easy, ptr %39, i32 0, i32 15
  %41 = getelementptr inbounds nuw %struct.UserDefined, ptr %40, i32 0, i32 35
  %42 = load ptr, ptr %41, align 8, !tbaa !133
  %43 = call i32 %37(ptr noundef %38, ptr noundef %8, ptr noundef %42)
  store i32 %43, ptr %6, align 4, !tbaa !38
  %44 = load i32, ptr %6, align 4, !tbaa !38
  %45 = icmp eq i32 %44, 0
  br i1 %45, label %46, label %87

46:                                               ; preds = %21
  call void @llvm.lifetime.start.p0(i64 8, ptr %9) #5
  call void @llvm.lifetime.start.p0(i64 4, ptr %10) #5
  br label %47

47:                                               ; preds = %46
  br label %48

48:                                               ; preds = %47
  br label %49

49:                                               ; preds = %48
  %50 = getelementptr inbounds nuw %struct.curl_hstsentry, ptr %8, i32 0, i32 0
  %51 = load ptr, ptr %50, align 8, !tbaa !126
  %52 = getelementptr inbounds i8, ptr %51, i64 0
  %53 = load i8, ptr %52, align 1, !tbaa !32
  %54 = icmp ne i8 %53, 0
  br i1 %54, label %56, label %55

55:                                               ; preds = %49
  store i32 43, ptr %3, align 4
  store i32 1, ptr %11, align 4
  br label %84

56:                                               ; preds = %49
  %57 = getelementptr inbounds nuw %struct.curl_hstsentry, ptr %8, i32 0, i32 3
  %58 = getelementptr inbounds [18 x i8], ptr %57, i64 0, i64 0
  %59 = load i8, ptr %58, align 1, !tbaa !32
  %60 = icmp ne i8 %59, 0
  br i1 %60, label %61, label %65

61:                                               ; preds = %56
  %62 = getelementptr inbounds nuw %struct.curl_hstsentry, ptr %8, i32 0, i32 3
  %63 = getelementptr inbounds [18 x i8], ptr %62, i64 0, i64 0
  %64 = call i64 @Curl_getdate_capped(ptr noundef %63)
  store i64 %64, ptr %9, align 8, !tbaa !30
  br label %66

65:                                               ; preds = %56
  store i64 9223372036854775807, ptr %9, align 8, !tbaa !30
  br label %66

66:                                               ; preds = %65, %61
  %67 = load ptr, ptr %5, align 8, !tbaa !8
  %68 = getelementptr inbounds nuw %struct.curl_hstsentry, ptr %8, i32 0, i32 0
  %69 = load ptr, ptr %68, align 8, !tbaa !126
  %70 = getelementptr inbounds nuw %struct.curl_hstsentry, ptr %8, i32 0, i32 2
  %71 = load i8, ptr %70, align 8
  %72 = and i8 %71, 1
  %73 = zext i8 %72 to i32
  %74 = icmp ne i32 %73, 0
  %75 = select i1 %74, i32 1, i32 0
  %76 = icmp ne i32 %75, 0
  %77 = load i64, ptr %9, align 8, !tbaa !30
  %78 = call i32 @hsts_create(ptr noundef %67, ptr noundef %69, i1 noundef zeroext %76, i64 noundef %77)
  store i32 %78, ptr %10, align 4, !tbaa !38
  %79 = load i32, ptr %10, align 4, !tbaa !38
  %80 = icmp ne i32 %79, 0
  br i1 %80, label %81, label %83

81:                                               ; preds = %66
  %82 = load i32, ptr %10, align 4, !tbaa !38
  store i32 %82, ptr %3, align 4
  store i32 1, ptr %11, align 4
  br label %84

83:                                               ; preds = %66
  store i32 0, ptr %11, align 4
  br label %84

84:                                               ; preds = %83, %81, %55
  call void @llvm.lifetime.end.p0(i64 4, ptr %10) #5
  call void @llvm.lifetime.end.p0(i64 8, ptr %9) #5
  %85 = load i32, ptr %11, align 4
  switch i32 %85, label %93 [
    i32 0, label %86
  ]

86:                                               ; preds = %84
  br label %92

87:                                               ; preds = %21
  %88 = load i32, ptr %6, align 4, !tbaa !38
  %89 = icmp eq i32 %88, 2
  br i1 %89, label %90, label %91

90:                                               ; preds = %87
  store i32 42, ptr %3, align 4
  store i32 1, ptr %11, align 4
  br label %93

91:                                               ; preds = %87
  br label %92

92:                                               ; preds = %91, %86
  store i32 0, ptr %11, align 4
  br label %93

93:                                               ; preds = %92, %90, %84
  call void @llvm.lifetime.end.p0(i64 40, ptr %8) #5
  call void @llvm.lifetime.end.p0(i64 257, ptr %7) #5
  %94 = load i32, ptr %11, align 4
  switch i32 %94, label %100 [
    i32 0, label %95
  ]

95:                                               ; preds = %93
  br label %96

96:                                               ; preds = %95
  %97 = load i32, ptr %6, align 4, !tbaa !38
  %98 = icmp eq i32 %97, 0
  br i1 %98, label %21, label %99, !llvm.loop !134

99:                                               ; preds = %96
  store i32 0, ptr %11, align 4
  br label %100

100:                                              ; preds = %99, %93
  call void @llvm.lifetime.end.p0(i64 4, ptr %6) #5
  %101 = load i32, ptr %11, align 4
  switch i32 %101, label %106 [
    i32 0, label %102
    i32 1, label %104
  ]

102:                                              ; preds = %100
  br label %103

103:                                              ; preds = %102, %2
  store i32 0, ptr %3, align 4
  br label %104

104:                                              ; preds = %103, %100
  %105 = load i32, ptr %3, align 4
  ret i32 %105

106:                                              ; preds = %100
  unreachable
}

; Function Attrs: nounwind uwtable
define dso_local i32 @Curl_hsts_loadcb(ptr noundef %0, ptr noundef %1) #0 {
  %3 = alloca i32, align 4
  %4 = alloca ptr, align 8
  %5 = alloca ptr, align 8
  store ptr %0, ptr %4, align 8, !tbaa !45
  store ptr %1, ptr %5, align 8, !tbaa !8
  %6 = load ptr, ptr %5, align 8, !tbaa !8
  %7 = icmp ne ptr %6, null
  br i1 %7, label %8, label %12

8:                                                ; preds = %2
  %9 = load ptr, ptr %4, align 8, !tbaa !45
  %10 = load ptr, ptr %5, align 8, !tbaa !8
  %11 = call i32 @hsts_pull(ptr noundef %9, ptr noundef %10)
  store i32 %11, ptr %3, align 4
  br label %13

12:                                               ; preds = %2
  store i32 0, ptr %3, align 4
  br label %13

13:                                               ; preds = %12, %8
  %14 = load i32, ptr %3, align 4
  ret i32 %14
}